; Function Attrs: nounwind uwtable
define internal noundef i32 @encode_mcu_DC_refine(ptr nocapture noundef readonly %0, ptr nocapture noundef readonly %1) #0 {
  %3 = getelementptr inbounds i8, ptr %0, i64 496
  %4 = load ptr, ptr %3, align 8
  %5 = getelementptr inbounds i8, ptr %0, i64 424
  %6 = load i32, ptr %5, align 8
  %7 = getelementptr inbounds i8, ptr %0, i64 40
  %8 = load ptr, ptr %7, align 8
  %9 = load ptr, ptr %8, align 8
  %10 = getelementptr inbounds i8, ptr %4, i64 32
  store ptr %9, ptr %10, align 8
  %11 = load ptr, ptr %7, align 8
  %12 = getelementptr inbounds i8, ptr %11, i64 8
  %13 = load i64, ptr %12, align 8
  %14 = getelementptr inbounds i8, ptr %4, i64 40
  store i64 %13, ptr %14, align 8
  %15 = getelementptr inbounds i8, ptr %0, i64 280
  %16 = load i32, ptr %15, align 8
  %.not = icmp eq i32 %16, 0
  br i1 %.not, label %24, label %17

17:                                               ; preds = %2
  %18 = getelementptr inbounds i8, ptr %4, i64 104
  %19 = load i32, ptr %18, align 8
  %20 = icmp eq i32 %19, 0
  br i1 %20, label %21, label %24

21:                                               ; preds = %17
  %22 = getelementptr inbounds i8, ptr %4, i64 108
  %23 = load i32, ptr %22, align 4
  tail call fastcc void @emit_restart(ptr noundef nonnull %4, i32 noundef %23)
  br label %24

24:                                               ; preds = %17, %21, %2
  %25 = getelementptr inbounds i8, ptr %0, i64 368
  %26 = load i32, ptr %25, align 8
  %27 = icmp sgt i32 %26, 0
  br i1 %27, label %.lr.ph, label %._crit_edge

.lr.ph:                                           ; preds = %24, %.lr.ph
  %indvars.iv = phi i64 [ %indvars.iv.next, %.lr.ph ], [ 0, %24 ]
  %28 = getelementptr inbounds ptr, ptr %1, i64 %indvars.iv
  %29 = load ptr, ptr %28, align 8
  %30 = load i16, ptr %29, align 2
  %31 = sext i16 %30 to i32
  %32 = ashr i32 %31, %6
  tail call fastcc void @emit_bits(ptr noundef %4, i32 noundef %32, i32 noundef 1)
  %indvars.iv.next = add nuw nsw i64 %indvars.iv, 1
  %33 = load i32, ptr %25, align 8
  %34 = sext i32 %33 to i64
  %35 = icmp slt i64 %indvars.iv.next, %34
  br i1 %35, label %.lr.ph, label %._crit_edge, !llvm.loop !14

._crit_edge:                                      ; preds = %.lr.ph, %24
  %36 = load ptr, ptr %10, align 8
  %37 = load ptr, ptr %7, align 8
  store ptr %36, ptr %37, align 8
  %38 = load i64, ptr %14, align 8
  %39 = load ptr, ptr %7, align 8
  %40 = getelementptr inbounds i8, ptr %39, i64 8
  store i64 %38, ptr %40, align 8
  %41 = load i32, ptr %15, align 8
  %.not30 = icmp eq i32 %41, 0
  br i1 %.not30, label %54, label %42

42:                                               ; preds = %._crit_edge
  %43 = getelementptr inbounds i8, ptr %4, i64 104
  %44 = load i32, ptr %43, align 8
  %45 = icmp eq i32 %44, 0
  br i1 %45, label %46, label %51

46:                                               ; preds = %42
  %47 = getelementptr inbounds i8, ptr %4, i64 108
  %48 = load i32, ptr %47, align 4
  %49 = add nsw i32 %48, 1
  %50 = and i32 %49, 7
  store i32 %50, ptr %47, align 4
  br label %51

51:                                               ; preds = %46, %42
  %52 = phi i32 [ %41, %46 ], [ %44, %42 ]
  %53 = add i32 %52, -1
  store i32 %53, ptr %43, align 8
  br label %54

54:                                               ; preds = %51, %._crit_edge
  ret i32 1
}